(dp0
Vhttp://www.iitr.ac.in/departments/CE/pages/People+Faculty+gjkumfce.html
p1
F0.00041610897555978475
sVhttp://www.iitr.ac.in/departments/HS/pages/People+Faculty+dknarfhs.html
p2
F0.00041655743178483376
sVhttp://faculty.iitmandi.ac.in/~sd/
p3
F0.00042085002604498037
sVhttp://www.iitr.ac.in/departments/PH/pages/People+Faculty+mitrafph.html
p4
F0.00041609316867581147
sVhttp://faculty.iitmandi.ac.in/~abbas/
p5
F0.00041833007561815954
sVhttp://www.iitr.ac.in/departments/EE/pages/People+Faculty+sgceefee.html
p6
F0.00042028580591169237
sVhttp://www.iitr.ac.in/departments/CE/pages/People+Faculty+nksamfce.html
p7
F0.00041610897555978475
sVhttp://faculty.iitmandi.ac.in/~achakraborty/
p8
F0.00041833007561815954
sVhttp://www.iitr.ac.in/departments/CSE/pages/People+Faculty+Partha_Pratim_Roy.html
p9
F0.0004164379821761965
sVhttp://www.iitr.ac.in/departments/ECE/pages/People+Faculty+bkk23fec.html
p10
F0.0004160984020501501
sVhttp://www.iitr.ac.in/departments/CH/pages/People+Faculty+schanfch.html
p11
F0.0004161689272139339
sVhttp://www.iitr.ac.in/departments/CE/pages/People+Faculty+ssjanfce.html
p12
F0.00041610897555978475
sVhttp://www.iitr.ac.in/departments/ME/pages/People+Faculty+mmishfme.html
p13
F0.0004158244236155584
sVhttp://faculty.iitmandi.ac.in/~subrata/
p14
F0.00041833007561815954
sVhttp://www.iitr.ac.in/departments/PH/pages/People+Faculty+pcsrifph.html
p15
F0.00041609316867581147
sVhttp://www.iitr.ac.in/departments/ECE/pages/People+Faculty+scecefec.html
p16
F0.0004160984020501501
sVhttp://www.iitr.ac.in/departments/ECE/pages/People+Faculty+dharmfec.html
p17
F0.0004160984020501501
sVhttp://www.iitr.ac.in/departments/CH/pages/People+Faculty+bashefch.html
p18
F0.0004161689272139339
sVhttp://faculty.iitmandi.ac.in/~rajanishgiri
p19
F0.00041833007561815954
sVhttp://www.iitr.ac.in/departments/CE/pages/People+Faculty+dkashfce.html
p20
F0.00041610897555978475
sVhttp://faculty.iitmandi.ac.in/~manu/
p21
F0.0004240441292048427
sVhttp://www.iitr.ac.in/departments/BT/pages/People+Faculty+shailfbt.html
p22
F0.0004160488930862981
sVhttp://www.iitr.ac.in/departments/PPE/pages/People+Faculty+manikfpt.html
p23
F0.0004207696454640937
sVhttp://www.iitr.ac.in/departments/CSE/pages/Home+Departments_and_Centres+Mathematics+People+Faculty+Gangopadhyay_Sugata.html
p24
F0.0004164379821761965
sVhttp://www.iitr.ernet.in/departments/ME/pages/People+Faculty+Akshay_Dvivedi.html
p25
F0.00041585873733692303
sVhttp://www.iitr.ac.in/departments/CE/pages/People+Faculty+bhpdpfce.html
p26
F0.00041610897555978475
sVhttp://www.iitr.ac.in/departments/EE/pages/People+Faculty+vpantfee.html
p27
F0.00041618545658572465
sVhttp://www.iitr.ac.in/departments/CE/pages/People+Faculty+indrafce.html
p28
F0.00041610897555978475
sVhttp://faculty.iitmandi.ac.in/~pradeep/
p29
F0.00041833007561815954
sVhttp://www.iitr.ac.in/departments/ME/pages/People+Faculty+anikrfme.html
p30
F0.0004158244236155584
sVhttp://www.iitr.ac.in/departments/BT/pages/People+Faculty+hsdhafbs.html
p31
F0.0004160488930862981
sVhttp://www.iitr.ac.in/departments/CE/pages/People+Faculty+skgrssce.html
p32
F0.00041610897555978475
sVhttp://www.iitr.ac.in/departments/ME/pages/People+Faculty+bhanufme.html
p33
F0.0004158244236155584
sVhttp://www.iitr.ac.in/departments/HS/pages/People+Faculty+nagenfhs.html
p34
F0.00041655743178483376
sVhttp://www.iitr.ac.in/departments/CY/pages/People+Faculty+hem12fcy.html
p35
F0.0004159809376057057
sVhttp://www.iitr.ac.in/departments/ECE/pages/People+Faculty+nagppfec.html
p36
F0.0004160984020501501
sVhttp://www.iitr.ac.in/departments/PH/pages/People+Faculty+Soumitra_Satapathi.html
p37
F0.00041609316867581147
sVhttp://www.iitr.ac.in/departments/ME/pages/People+Faculty+Ankit_Bansal.html
p38
F0.0004158244236155584
sVhttp://www.iitr.ac.in/departments/CE/pages/People+Faculty+pks08fce.html
p39
F0.00041610897555978475
sVhttp://www.iitr.ac.in/departments/MT/pages/People+Faculty+vijayfmt.html
p40
F0.00041619278997460213
sVhttp://www.iitr.ac.in/departments/ME/pages/People+Faculty+mmj81fme.html
p41
F0.0004158244236155584
sVhttp://www.iitr.ac.in/departments/BT/pages/People+Faculty+vikasfbs.html
p42
F0.0004160488930862981
sVhttp://www.iitr.ac.in/departments/PH/pages/People+Faculty+gdvarfph.html
p43
F0.00041609316867581147
sVhttp://www.iitr.ac.in/departments/BT/pages/People+Faculty+ritubfbs.html
p44
F0.0004160488930862981
sVhttp://www.iitr.ac.in/departments/BT/pages/People+Faculty+debsrfbt.html
p45
F0.0004160488930862981
sVhttp://www.iitr.ac.in/departments/BT/pages/People+Faculty+navnifbs.html
p46
F0.0004160488930862981
sVhttp://www.iitr.ac.in/departments/HS/pages/People+Faculty+ilafhs.html
p47
F0.00041655743178483376
sVhttp://www.iitr.ac.in/departments/ASE/pages/People+Faculty+yksptfpt.html
p48
F0.00042114865336325617
sVhttp://faculty.iitmandi.ac.in/~viswa
p49
F0.00042234115036065715
sVhttp://www.iitr.ac.in/departments/ME/pages/People+Faculty+palkfme.html
p50
F0.0004158244236155584
sS'http://www.iitr.ac.in/departments/BT/pages/index.html'
p51
F0.0005056918715309436
sVhttp://www.iitr.ac.in/departments/CSE/pages/People+Faculty+drpskfec.html
p52
F0.0004164379821761965
sVhttp://www.iitr.ac.in/departments/PH/pages/People+Faculty+indubfph.html
p53
F0.00041609316867581147
sVhttp://faculty.iitmandi.ac.in/~rajeev/
p54
F0.00042234115036065715
sVhttp://www.iitr.ac.in/departments/MT/pages/People+Faculty+shrvnfmt.html
p55
F0.00041619278997460213
sVhttp://www.iitr.ac.in/departments/ME/pages/People+Faculty+sahoofme.html
p56
F0.0004158244236155584
sVhttp://www.iitr.ac.in/departments/ECE/pages/People+Faculty+tyagifec.html
p57
F0.0004160984020501501
sVhttp://www.iitr.ac.in/departments/ME/pages/People+Faculty+subudfme.html
p58
F0.0004158244236155584
sVhttp://www.iitr.ac.in/departments/PH/pages/People+Faculty+rcfphfph.html
p59
F0.00041609316867581147
sVhttp://faculty.iitmandi.ac.in/~anil/
p60
F0.00042085002604498037
sVhttp://www.iitr.ac.in/departments/HS/pages/People+Faculty+runalfhs.html
p61
F0.00041655743178483376
sS'http://www.iitr.ac.in/departments/CH/pages/index.html'
p62
F0.0005079548396059417
sVhttp://www.iitr.ac.in/departments/HS/pages/People+Faculty+gargpfhs.html
p63
F0.00041655743178483376
sS'http://www.iitr.ac.in/departments/HS/pages/About_the_Department___.html'
p64
F0.00046572562626895
sVhttp://www.iitr.ac.in/departments/CE/pages/People+Faculty+pkumafce.html
p65
F0.00041610897555978475
sVhttp://www.iitr.ac.in/departments/ME/pages/People+Faculty+pkjhafme.html
p66
F0.0004158244236155584
sVhttp://faculty.iitmandi.ac.in/~kaustav/
p67
F0.00041833007561815954
sVhttp://www.iitr.ernet.in/departments/ME/pages/People+Faculty+Abinash_Kumar_Swain.html
p68
F0.00041585873733692303
sVhttp://www.iitr.ac.in/departments/ME/pages/People+Faculty+singhfme.html
p69
F0.0004158244236155584
sS'http://www.iitr.ac.in/departments/MT/pages/index.html'
p70
F0.0005159235537877919
sVhttp://www.iitr.ac.in/departments/PPE/pages/People+Faculty+A__Bandyopadhyay.html
p71
F0.0004207696454640937
sVhttp://www.iitr.ac.in/departments/CE/pages/People+Faculty+renbhfce.html
p72
F0.00041610897555978475
sVhttp://www.iitr.ac.in/departments/CH/pages/People+Faculty+pmondfch.html
p73
F0.0004161689272139339
sVhttp://www.iitr.ac.in/departments/PPE/pages/People+Faculty+Faculty_Profiles.html
p74
F0.0004644327569871991
sVhttp://faculty.iitmandi.ac.in/~abhimanew/
p75
F0.00041833007561815954
sVhttp://www.iitr.ac.in/departments/CE/pages/People+Faculty+munisfce.html
p76
F0.00041610897555978475
sVhttp://www.iitr.ac.in/departments/EE/pages/Faculty_List.html
p77
F0.0005530767719403927
sVhttp://www.iitr.ac.in/departments/MA/pages/People+Faculty+Malikfma.html
p78
F0.0004160753742808661
sVhttp://www.iitr.ac.in/departments/CY/pages/People+Faculty+akscyfcy.html
p79
F0.0004159809376057057
sVhttp://www.iitr.ac.in/departments/ECE/pages/People+Faculty+arnabfec.html
p80
F0.0004160984020501501
sVhttp://www.iitr.ac.in/departments/CH/pages/People+Faculty+chandfch.html
p81
F0.0004161689272139339
sVhttp://www.iitr.ac.in/departments/ME/pages/People+Faculty+mehtafme.html
p82
F0.0004158244236155584
sVhttp://www.iitr.ernet.in/departments/ME/pages/People+Faculty+meaksfme.html
p83
F0.00041585873733692303
sVhttp://faculty.iitmandi.ac.in/~shekhar/
p84
F0.00041833007561815954
sVhttp://www.iitr.ac.in/departments/ECE/pages/People+Faculty+kumarfec.html
p85
F0.0004160984020501501
sVhttp://www.iitr.ac.in/departments/MA/pages/People+Faculty+Mittal_M_L.html
p86
F0.0004160753742808661
sVhttp://faculty.iitmandi.ac.in/~sumansigroha/
p87
F0.0004240441292048427
sVhttp://www.iitr.ac.in/departments/PPE/pages/People+Faculty+misrafpt.html
p88
F0.00042071445894098215
sVhttp://www.iitr.ac.in/departments/MA/pages/People+Faculty+Gakkhar_Sunita.html
p89
F0.0004160753742808661
sVhttp://www.iitr.ernet.in/departments/ME/pages/People+Faculty+bhanufme.html
p90
F0.00041585873733692303
sVhttp://www.iitr.ac.in/departments/MA/pages/People+Faculty+Uaday_Singh.html
p91
F0.0004160753742808661
sVhttp://www.iitr.ac.in/departments/ME/pages/People+Faculty+krimufme.html
p92
F0.0004158244236155584
sVhttp://faculty.iitmandi.ac.in/~arnav
p93
F0.00042085002604498037
sVhttp://www.iitr.ernet.in/departments/ME/pages/People+Faculty+goelvfme.html
p94
F0.00041585873733692303
sVhttp://www.iitr.ac.in/departments/MT/pages/People+Faculty+vivekfmt.html
p95
F0.00041619278997460213
sVhttp://www.iitr.ac.in/departments/CY/pages/People+Faculty+udaipfcy.html
p96
F0.0004159809376057057
sVhttp://www.iitr.ac.in/departments/BT/pages/People+Faculty+rpathfbs.html
p97
F0.0004160488930862981
sVhttp://www.iitr.ac.in/departments/ECE/pages/People+Faculty+Brijesh_Kumar.html
p98
F0.0004160984020501501
sVhttp://www.iitr.ac.in/departments/ME/pages/People+Faculty+Avinash_Parashar.html
p99
F0.0004158244236155584
sVhttp://www.iitr.ac.in/departments/ME/pages/People+Faculty+duttafme.html
p100
F0.0004158244236155584
sVhttp://faculty.iitmandi.ac.in/~ajay/
p101
F0.00041833007561815954
sVhttp://www.iitr.ac.in/departments/CE/pages/People+Faculty+umuksfce.html
p102
F0.00041610897555978475
sVhttp://www.iitr.ac.in/departments/MA/pages/People+Faculty+Shiv_Kumar_Gupta.html
p103
F0.0004160753742808661
sVhttp://www.iitr.ac.in/departments/ME/pages/People+Faculty+dinesfme.html
p104
F0.0004158244236155584
sVhttp://www.iitr.ac.in/departments/MA/pages/People+Faculty+Sharma_S_P.html
p105
F0.0004160753742808661
sVhttp://www.iitr.ac.in/departments/CY/pages/People+Faculty+duttafcy.html
p106
F0.0004159809376057057
sVhttp://www.iitr.ac.in/departments/CH/pages/People+Faculty+Taraknath_Das.html
p107
F0.0004161689272139339
sVhttp://faculty.iitmandi.ac.in/~tag/
p108
F0.00042085002604498037
sVhttp://www.iitmandi.ac.in/institute/faculty_c&ee.html
p109
F0.0004345432162485463
sVhttp://www.iitr.ac.in/departments/PH/pages/People+Faculty+virphfph.html
p110
F0.00041609316867581147
sVhttp://www.iitr.ac.in/departments/CE/pages/People+Faculty+bholafce.html
p111
F0.00041610897555978475
sVhttp://www.iitr.ac.in/departments/MA/pages/People+Faculty+Bhargava_Rama__Ms__.html
p112
F0.0004160753742808661
sVhttp://www.iitr.ac.in/departments/ME/pages/People+Faculty+ashokfme.html
p113
F0.0004158244236155584
sVhttp://www.iitr.ac.in/departments/ECE/pages/People+Faculty+sudebfec.html
p114
F0.0004160984020501501
sVhttp://www.iitr.ac.in/departments/CSE/pages/People+Faculty+patelfec.html
p115
F0.0004164379821761965
sVhttp://www.iitr.ac.in/departments/PH/pages/People+Faculty+sunilfph.html
p116
F0.00041609316867581147
sVhttp://www.iitr.ac.in/departments/ASE/pages/People+Faculty+jaydafpt.html
p117
F0.0004213328560108855
sVhttp://www.iitr.ac.in/departments/CE/pages/People+Faculty+iqbalfce.html
p118
F0.00041610897555978475
sVhttp://www.iitr.ac.in/departments/CY/pages/People+Faculty+vinodfcy.html
p119
F0.0004159809376057057
sVhttp://www.iitr.ac.in/departments/ECE/pages/People+Faculty+mkndnfec.html
p120
F0.0004160984020501501
sVhttp://www.iitr.ac.in/departments/EE/pages/People+Faculty+gkumbfee.html
p121
F0.00041618545658572465
sVhttp://www.iitr.ac.in/departments/ME/pages/People+Faculty+bennyfme.html
p122
F0.0004158244236155584
sVhttp://www.iitr.ac.in/departments/CE/pages/People+Faculty+vkgsufce.html
p123
F0.00041610897555978475
sVhttp://www.iitr.ac.in/departments/CY/pages/People+Faculty+kcgptfcy.html
p124
F0.0004159809376057057
sVhttp://www.iitr.ac.in/departments/CE/pages/People+Faculty+rajibfce.html
p125
F0.00041610897555978475
sVhttp://faculty.iitmandi.ac.in/~vkn/
p126
F0.00041833007561815954
sVhttp://faculty.iitmandi.ac.in/~rajendra/
p127
F0.00041833007561815954
sVhttp://www.iitr.ac.in/departments/EE/pages/People+Faculty+vksaxfee.html
p128
F0.00041618545658572465
sVhttp://www.iitr.ac.in/departments/MA/pages/People+Faculty+Deep_Kusum.html
p129
F0.0004160753742808661
sVhttp://www.iitr.ac.in/departments/ME/pages/People+Faculty+Abinash_Kumar_Swain.html
p130
F0.0004158244236155584
sVhttp://www.iitr.ac.in/departments/BT/pages/People+Faculty+paroyfbs.html
p131
F0.0004160488930862981
sVhttp://www.iitr.ac.in/departments/MA/pages/People+Faculty+Dr__Roshan_Lal_.html
p132
F0.0004160753742808661
sVhttp://www.iitr.ac.in/departments/BT/pages/People+Faculty+Dr__Kiran_Ambatipudi.html
p133
F0.0004160488930862981
sVhttp://www.iitr.ac.in/departments/MT/pages/People+Faculty+asil1fmt.html
p134
F0.00041619278997460213
sVhttp://www.iitr.ac.in/departments/ME/pages/People+Faculty+bkgmefme.html
p135
F0.0004158244236155584
sVhttp://www.iitr.ac.in/departments/EE/pages/People+Faculty+pjenafee.html
p136
F0.00041618545658572465
sS'http://www.iitr.ac.in/departments/MA/pages/index.html'
p137
F0.0005278542370852851
sVhttp://www.iitr.ac.in/departments/ME/pages/People+Faculty+ajaiafme.html
p138
F0.0004158244236155584
sVhttp://www.iitr.ac.in/departments/ASE/pages/People+Faculty+Faculty_Profiles.html
p139
F0.00046158990994635203
sVhttp://www.iitr.ac.in/departments/CH/pages/People+Faculty+imishfch.html
p140
F0.0004161689272139339
sVhttp://www.iitr.ac.in/departments/CY/pages/People+Faculty+bvgcyfcy.html
p141
F0.0004159809376057057
sVhttp://www.iitr.ernet.in/departments/ME/pages/People+Faculty+rsmulfme.html
p142
F0.00041585873733692303
sVhttp://www.iitr.ac.in/departments/EE/pages/People+Faculty+Anubrata_Dey.html
p143
F0.00041618545658572465
sVhttp://www.iitr.ac.in/departments/MT/pages/People+Faculty+prakgfmt.html
p144
F0.00041619278997460213
sVhttp://www.iitr.ac.in/departments/CH/pages/People+Faculty+rpbharti.html
p145
F0.0004161689272139339
sVhttp://www.iitr.ac.in/departments/PPE/pages/People+Faculty+sujayfpt.html
p146
F0.0004207696454640937
sVhttp://faculty.iitmandi.ac.in/~ppathak/
p147
F0.00041833007561815954
sVhttp://www.iitr.ac.in/departments/ME/pages/People+Faculty+sainifme.html
p148
F0.0004158244236155584
sVhttp://www.iitr.ac.in/departments/CH/pages/People+Faculty+shabifch.html
p149
F0.0004161689272139339
sVhttp://www.iitr.ac.in/departments/PH/pages/People+Faculty+Vivek_K__Malik.html
p150
F0.00041609316867581147
sVhttp://www.iitr.ac.in/departments/MA/pages/People+Faculty+Swaminathan_A_.html
p151
F0.0004160753742808661
sVhttp://www.iitr.ac.in/departments/BT/pages/People+Faculty_List.html
p152
F0.0005056918715309436
sVhttp://www.iitr.ernet.in/departments/ME/pages/People+Faculty+Ankit_Bansal.html
p153
F0.00041585873733692303
sVhttp://www.iitr.ac.in/departments/ECE/pages/People+Faculty+samanfec.html
p154
F0.000424577294074512
sVhttp://www.iitr.ac.in/departments/MT/pages/People+Faculty+indiafmt.html
p155
F0.00041619278997460213
sVhttp://faculty.iitmandi.ac.in/~padman/software.html
p156
F0.0005807111444386106
sVhttp://faculty.iitmandi.ac.in/~jamit/
p157
F0.00041833007561815954
sS'http://www.iitr.ac.in/departments/CSE/pages/index.html'
p158
F0.00047277109808594765
sVhttp://faculty.iitmandi.ac.in/~satinder/
p159
F0.0004689471718786924
sVhttp://www.iitr.ac.in/departments/EE/pages/Activities+Faculty_participation.html
p160
F0.0005530767719403927
sVhttp://www.iitr.ac.in/departments/MA/pages/People+Faculty+Dr__Mahesh_Anand.html
p161
F0.0004160753742808661
sVhttp://www.iitr.ac.in/departments/CY/pages/People+Faculty+krjt8fcy.html
p162
F0.0004159809376057057
sVhttp://faculty.iitmandi.ac.in/~arti/magmat.html
p163
F0.0004526086736135463
sVhttp://www.iitr.ac.in/departments/MA/pages/People+Faculty+Gulati_T_R.html
p164
F0.0004160753742808661
sVhttp://www.iitr.ernet.in/departments/ME/pages/People+Faculty+tariqfme.html
p165
F0.00041585873733692303
sVhttp://www.iitr.ac.in/departments/ASE/pages/People+Faculty+skm01fpt.html
p166
F0.00042114865336325617
sVhttp://faculty.iitmandi.ac.in/~add/Internal%20Combustion%20Engines.htm
p167
F0.00044991256960823245
sVhttp://www.iitr.ac.in/departments/ME/pages/People+Faculty+inderfme.html
p168
F0.0004158244236155584
sVhttp://www.iitr.ernet.in/departments/ME/pages/People+Faculty+palkfme.html
p169
F0.00041585873733692303
sVhttp://www.iitr.ac.in/departments/PH/pages/People+Faculty+vipulfph.html
p170
F0.00041609316867581147
sVhttp://www.iitr.ac.in/departments/PH/pages/People+Faculty_List.html
p171
F0.0005443475683219719
sVhttp://www.iitr.ac.in/departments/EE/pages/People+Faculty+mukesfee.html
p172
F0.00041618545658572465
sVhttp://www.iitr.ac.in/departments/PPE/pages/People+Faculty+ynegifpt.html
p173
F0.0004251032783043956
sVhttp://faculty.iitmandi.ac.in/~hitesh/
p174
F0.00042085002604498037
sVhttp://faculty.iitmandi.ac.in/~muslim/
p175
F0.00041833007561815954
sVhttp://www.iitr.ac.in/departments/CH/pages/People+Faculty+skumar.html
p176
F0.0004161689272139339
sVhttp://www.iitr.ac.in/departments/PH/pages/People+Faculty+ist11fph.html
p177
F0.00041609316867581147
sVhttp://www.iitr.ac.in/departments/ME/pages/People+Faculty+gakhrfme.html
p178
F0.0004158244236155584
sVhttp://www.iitr.ac.in/departments/CE/pages/People+Faculty+kjainfce.html
p179
F0.00041610897555978475
sVhttp://www.iitr.ac.in/departments/EE/pages/People+Faculty+cpg65fee.html
p180
F0.00041618545658572465
sVhttp://www.iitr.ac.in/departments/PH/pages/People+Faculty+aalokfph.html
p181
F0.00041609316867581147
sS'http://www.iitr.ac.in/departments/CY/pages/index.html'
p182
F0.0005324460288003603
sVhttp://www.iitr.ac.in/departments/CH/pages/People+Faculty+ravibfch.html
p183
F0.0004161689272139339
sVhttp://www.iitr.ac.in/departments/EE/pages/People+Faculty+manojfee.html
p184
F0.00041618545658572465
sVhttp://www.iitr.ernet.in/departments/ME/pages/People+Faculty+sshmefme.html
p185
F0.00041585873733692303
sVhttp://www.iitr.ac.in/departments/CY/pages/People+Faculty+tapasfcy.html
p186
F0.0004159809376057057
sVhttp://www.iitr.ac.in/departments/ASE/pages/People+Faculty+millifpt.html
p187
F0.0004207711350416346
sVhttp://www.iitr.ac.in/departments/CH/pages/People+Faculty.html
p188
F0.0005079548396059417
sVhttp://www.iitr.ac.in/departments/ME/pages/People+Faculty+radhefme.html
p189
F0.0004158244236155584
sVhttp://www.iitr.ac.in/departments/EE/pages/People+Faculty+spseefee.html
p190
F0.00041618545658572465
sVhttp://www.iitr.ac.in/departments/CY/pages/People+Faculty+rbushfcy.html
p191
F0.0004159809376057057
sVhttp://www.iitr.ac.in/departments/CY/pages/People+Faculty+malanfcy.html
p192
F0.0004159809376057057
sVhttp://www.iitr.ernet.in/departments/ME/pages/People+Faculty+sahoofme.html
p193
F0.00041585873733692303
sVhttp://www.iitr.ac.in/departments/HS/pages/People+Faculty+rgaurfhs.html
p194
F0.00041655743178483376
sVhttp://www.iitr.ac.in/departments/BT/pages/People+Faculty+sharnfbs.html
p195
F0.0004160488930862981
sVhttp://www.iitr.ac.in/departments/ME/pages/People+Faculty+manasfme.html
p196
F0.0004158244236155584
sVhttp://faculty.iitmandi.ac.in/~padman/
p197
F0.00042085002604498037
sVhttp://www.iitr.ac.in/departments/MT/pages/People+Faculty+dpurifmt.html
p198
F0.00041619278997460213
sVhttp://faculty.iitmandi.ac.in/~add/
p199
F0.00042234115036065715
sVhttp://www.iitmandi.ac.in/institute/faculty_hss.html
p200
F0.00043773731940840863
sVhttp://www.iitr.ac.in/departments/PH/pages/People+Faculty+lalitfph.html
p201
F0.00041609316867581147
sS'http://www.iitr.ac.in/departments/ASE/pages/Index.html'
p202
F0.00046158990994635203
sVhttp://www.iitr.ac.in/departments/ME/pages/People+Faculty+rprakash.html
p203
F0.0004158244236155584
sVhttp://www.iitr.ac.in/departments/PPE/pages/People+Faculty+ghoshfpt.html
p204
F0.0004207696454640937
sVhttp://www.iitr.ernet.in/departments/ME/pages/People+Faculty+ajaiafme.html
p205
F0.00041585873733692303
sVhttp://www.iitr.ac.in/departments/BT/pages/People+Faculty+___Dr__Krishna_Mohan_Poluri.html
p206
F0.0004160488930862981
sVhttp://www.iitr.ac.in/departments/ME/pages/People+Faculty+kumarfme.html
p207
F0.0004158244236155584
sVhttp://www.iitr.ac.in/departments/MT/pages/People+Faculty+ramesfmt.html
p208
F0.00041619278997460213
sVhttp://faculty.iitmandi.ac.in/~bs/
p209
F0.0004240441292048427
sVhttp://www.iitr.ac.in/departments/ECE/pages/People+Faculty_List.html
p210
F0.000507840269023689
sVhttp://www.iitr.ac.in/departments/CE/pages/People+Faculty+pkgupfce.html
p211
F0.00041610897555978475
sVhttp://faculty.iitmandi.ac.in/~bindu/
p212
F0.00041833007561815954
sVhttp://www.iitr.ernet.in/departments/ME/pages/People+Faculty+surajfme.html
p213
F0.00041585873733692303
sVhttp://www.iitr.ac.in/departments/CY/pages/People+Faculty+rkmanfcy.html
p214
F0.0004159809376057057
sVhttp://www.iitr.ernet.in/departments/ME/pages/People+Faculty+mmishfme.html
p215
F0.00041585873733692303
sVhttp://www.iitr.ac.in/departments/PPE/pages/People+Faculty+manojfpt.html
p216
F0.0004207696454640937
sVhttp://www.iitr.ac.in/departments/CE/pages/People+Faculty+kazmifce.html
p217
F0.00041610897555978475
sVhttp://www.iitr.ac.in/departments/ASE/pages/People+Faculty+ajphyfpt.html
p218
F0.0004213328560108855
sVhttp://www.iitr.ac.in/departments/ME/pages/People+Faculty+ravikfme.html
p219
F0.0004158244236155584
sVhttp://faculty.iitmandi.ac.in/~kishan/
p220
F0.00042234115036065715
sVhttp://www.iitr.ac.in/departments/ASE/pages/People+Faculty+rajanfpt.html
p221
F0.0004213328560108855
sVhttp://www.iitr.ac.in/departments/HS/pages/People+Faculty+singhfhs.html
p222
F0.00041655743178483376
sVhttp://faculty.iitmandi.ac.in/~rdutt/
p223
F0.0004240441292048427
sVhttp://www.iitr.ac.in/departments/CH/pages/People+Faculty+goravfch.html
p224
F0.0004161689272139339
sVhttp://www.iitr.ac.in/departments/MA/pages/People+Faculty+Ameeya__Kumar_Nayak.html
p225
F0.0004160753742808661
sVhttp://www.iitr.ac.in/departments/PH/pages/People+Faculty+ajainfph.html
p226
F0.00041609316867581147
sVhttp://faculty.iitmandi.ac.in/~hari/
p227
F0.00041833007561815954
sVhttp://www.iitr.ac.in/departments/MT/pages/People+Faculty+surenfmt.html
p228
F0.00041619278997460213
sVhttp://www.iitr.ac.in/departments/MA/pages/People+Faculty+Dewjendra_Narayan_Pandey.html
p229
F0.0004160753742808661
sVhttp://www.iitr.ac.in/departments/CE/pages/People+Faculty+manojfce.html
p230
F0.00041610897555978475
sVhttp://www.iitr.ac.in/departments/CSE/pages/People+Faculty+manojfec.html
p231
F0.0004164379821761965
sVhttp://www.iitr.ac.in/departments/PH/pages/People+Faculty+rnathfph.html
p232
F0.00041609316867581147
sVhttp://www.iitr.ac.in/departments/CSE/pages/People+Faculty+sarjefec.html
p233
F0.0004164379821761965
sVhttp://www.iitr.ac.in/departments/PH/pages/People+Faculty+moumifph.html
p234
F0.00041609316867581147
sVhttp://www.iitr.ac.in/departments/MT/pages/People+Faculty+vinayfmt.html
p235
F0.00041619278997460213
sVhttp://www.iitr.ac.in/departments/CY/pages/People+Faculty+jeevafcy.html
p236
F0.0004159809376057057
sVhttp://www.iitr.ernet.in/departments/ME/pages/People+Faculty+inderfme.html
p237
F0.00041585873733692303
sVhttp://www.iitr.ernet.in/departments/ME/pages/People+Faculty+subudfme.html
p238
F0.00041585873733692303
sVhttp://www.iitr.ac.in/departments/HS/pages/People+Faculty_List.html
p239
F0.00046572562626895
sVhttp://www.iitr.ac.in/departments/BT/pages/People+Faculty+ghoshfbs.html
p240
F0.0004160488930862981
sVhttp://faculty.iitmandi.ac.in/~arti/group.html
p241
F0.0004526086736135463
sVhttp://www.iitr.ac.in/departments/BT/pages/People+Faculty+kumarfbs.html
p242
F0.0004160488930862981
sVhttp://www.iitr.ac.in/departments/PPE/pages/People+Faculty+macrofpt.html
p243
F0.0004207696454640937
sVhttp://www.iitr.ac.in/departments/CY/pages/People+Faculty+ppthnfcy.html
p244
F0.0004159809376057057
sVhttp://www.iitr.ac.in/departments/ME/pages/People+Faculty+sshmefme.html
p245
F0.0004158244236155584
sVhttp://www.iitr.ac.in/departments/MT/pages/People+Faculty+s4danfmt.html
p246
F0.00041619278997460213
sVhttp://www.iitr.ac.in/departments/PPE/pages/Activities+Visits_of_Faculty.html
p247
F0.0004644327569871991
sVhttp://www.iitr.ernet.in/departments/ME/pages/People+Faculty+gakhrfme.html
p248
F0.00041585873733692303
sVhttp://www.iitr.ac.in/departments/CE/pages/People+Faculty+garryfce.html
p249
F0.00041610897555978475
sVhttp://www.iitr.ac.in/departments/CE/pages/People+Faculty+suryafce.html
p250
F0.00041610897555978475
sVhttp://faculty.iitmandi.ac.in/~ashok/
p251
F0.0004240441292048427
sVhttp://www.iitr.ernet.in/departments/ME/pages/People+Faculty+akdasfme.html
p252
F0.00041585873733692303
sVhttp://www.iitr.ac.in/departments/MA/pages/People+Faculty+Bera__P_.html
p253
F0.0004160753742808661
sVhttp://www.iitr.ernet.in/departments/ME/pages/People+Faculty+pjainfme.html
p254
F0.00041585873733692303
sVhttp://www.iitr.ac.in/departments/CE/pages/People+Faculty+garg_fce.html
p255
F0.00041610897555978475
sVhttp://www.iitr.ernet.in/departments/ME/pages/People+Faculty+pushpfme.html
p256
F0.00041585873733692303
sVhttp://www.iitr.ernet.in/departments/ME/pages/People+Faculty+bkgmefme.html
p257
F0.00041585873733692303
sVhttp://www.iitr.ac.in/departments/EE/pages/People+Faculty+spgfee.html
p258
F0.00041618545658572465
sVhttp://www.iitr.ac.in/departments/EE/pages/People+Faculty+rudrafee.html
p259
F0.00041618545658572465
sVhttp://faculty.iitmandi.ac.in/~sudhir/
p260
F0.00042234115036065715
sVhttp://www.iitr.ac.in/departments/EE/pages/People+Faculty+shardfee.html
p261
F0.00041618545658572465
sVhttp://faculty.iitmandi.ac.in/~arti/
p262
F0.0004526723204204384
sVhttp://www.iitr.ac.in/departments/ECE/pages/People+Faculty+vijecfec.html
p263
F0.0004160984020501501
sVhttp://www.iitr.ac.in/departments/CE/pages/People+Faculty+zulfifce.html
p264
F0.00041610897555978475
sVhttp://www.iitr.ernet.in/departments/ME/pages/People+Faculty+duttafme.html
p265
F0.00041585873733692303
sVhttp://www.iitr.ac.in/departments/ME/pages/People+Faculty+shumefme.html
p266
F0.0004158244236155584
sVhttp://www.iitr.ac.in/departments/CE/pages/People+Faculty_List.html
p267
F0.0006167438539624332
sVhttp://www.iitr.ac.in/departments/MA/pages/People+Faculty+Katiyar_V_K_.html
p268
F0.0004160753742808661
sVhttp://www.iitr.ernet.in/departments/ME/pages/People+Faculty+dinesfme.html
p269
F0.00041585873733692303
sVhttp://www.iitr.ac.in/departments/ME/pages/People+Faculty+sjainfme.html
p270
F0.0004158244236155584
sVhttp://www.iitr.ac.in/departments/CH/pages/People+Faculty+shishir.html
p271
F0.0004161689272139339
sVhttp://www.iitr.ac.in/departments/HS/pages/People+Faculty+renurfhs.html
p272
F0.00041655743178483376
sVhttp://faculty.iitmandi.ac.in/~rahul/
p273
F0.00042234115036065715
sVhttp://www.iitr.ernet.in/departments/ME/pages/People+Faculty+ravikfme.html
p274
F0.00041585873733692303
sVhttp://www.iitr.ac.in/departments/CY/pages/People+Faculty+sondifcy.html
p275
F0.0004159809376057057
sVhttp://www.iitr.ac.in/departments/PH/pages/People+Faculty+binoyfph.html
p276
F0.00041609316867581147
sVhttp://www.iitr.ac.in/departments/CE/pages/People+Faculty+gargpfce.html
p277
F0.00041610897555978475
sVhttp://www.iitr.ac.in/departments/EE/pages/People+Faculty+gnathfee.html
p278
F0.00041618545658572465
sVhttp://www.iitr.ac.in/departments/PH/pages/People+Faculty+tashifph.html
p279
F0.00041609316867581147
sVhttp://www.iitr.ac.in/departments/PH/pages/People+Faculty+wasanfph.html
p280
F0.00041609316867581147
sVhttp://www.iitr.ac.in/departments/CH/pages/People+Faculty+vijayfch.html
p281
F0.0004161689272139339
sVhttp://www.iitr.ac.in/departments/CY/pages/People+Faculty+kamalfcy.html
p282
F0.0004159809376057057
sVhttp://www.iitr.ac.in/departments/CH/pages/People+Faculty+amitdfch.html
p283
F0.0004161689272139339
sVhttp://faculty.iitmandi.ac.in/~pjana/
p284
F0.00042234115036065715
sVhttp://www.iitr.ac.in/departments/ECE/pages/People+Faculty+Pyari_Mohan_Pradhan.html
p285
F0.0004160984020501501
sVhttp://www.iitr.ac.in/departments/ASE/pages/People+Faculty+pmchyfpt.html
p286
F0.00041979658550052757
sVhttp://www.iitr.ac.in/departments/ECE/pages/People+Faculty+snsecfec.html
p287
F0.0004160984020501501
sVhttp://faculty.iitmandi.ac.in/~prasanth/
p288
F0.00041833007561815954
sVhttp://www.iitr.ac.in/departments/BT/pages/People+Faculty+Pranita_P__Sarangi.html
p289
F0.0004160488930862981
sVhttp://www.iitr.ac.in/departments/CSE/pages/People+Faculty+sgargfec.html
p290
F0.0004164379821761965
sVhttp://www.iitr.ac.in/departments/MT/pages/People+Faculty+indrafmt.html
p291
F0.00041619278997460213
sVhttp://www.iitr.ac.in/departments/CY/pages/People+Faculty+sankafcy.html
p292
F0.0004159809376057057
sVhttp://www.iitr.ernet.in/departments/ME/pages/People+Faculty+saranfme.html
p293
F0.00041585873733692303
sVhttp://www.iitr.ac.in/departments/MA/pages/People+Faculty+Jain__Madhu.html
p294
F0.0004160753742808661
sS'http://www.iitr.ac.in/departments/ME/pages/index.html'
p295
F0.0006086422911081617
sVhttp://www.iitr.ac.in/departments/MA/pages/People+Faculty_List.html
p296
F0.0005278542370852851
sVhttp://www.iitr.ac.in/departments/ASE/pages/Activities+Visits_of_Faculty_Members.html
p297
F0.00046158990994635203
sVhttp://faculty.iitmandi.ac.in/~rajesh/
p298
F0.00042234115036065715
sVhttp://www.iitr.ac.in/departments/ME/pages/People+Faculty+arorafme.html
p299
F0.0004158244236155584
sVhttp://www.iitr.ac.in/departments/MA/pages/People+Faculty+Banerjee_Sandip.html
p300
F0.0004160753742808661
sVhttp://www.iitr.ernet.in/departments/ME/pages/People+Faculty+singhfme.html
p301
F0.00041585873733692303
sVhttp://www.iitr.ac.in/departments/EE/pages/People+Faculty+yhotefee.html
p302
F0.00041618545658572465
sVhttp://www.iitr.ac.in/departments/CE/pages/People+Faculty+rajatfce.html
p303
F0.00041610897555978475
sVhttp://www.iitr.ac.in/departments/MT/pages/People+Faculty+rdapafmt.html
p304
F0.00041619278997460213
sVhttp://faculty.iitmandi.ac.in/~suman/
p305
F0.00041833007561815954
sVhttp://www.iitr.ac.in/departments/CY/pages/People+Faculty+Prasenjit_Kar.html
p306
F0.0004159809376057057
sVhttp://www.iitr.ac.in/departments/PH/pages/People+Faculty+aruphfph.html
p307
F0.00041609316867581147
sVhttp://www.iitr.ernet.in/departments/ME/pages/People+Faculty+pkjhafme.html
p308
F0.00041585873733692303
sVhttp://www.iitr.ac.in/departments/CE/pages/People+Faculty+mprdafce.html
p309
F0.00041610897555978475
sVhttp://www.iitr.ernet.in/departments/ME/pages/People+Faculty+arorafme.html
p310
F0.00041585873733692303
sVhttp://www.iitr.ernet.in/departments/ME/pages/People+Faculty.html
p311
F0.0006103305803532956
sVhttp://www.iitr.ernet.in/departments/ME/pages/People+Faculty+dkd04fme.html
p312
F0.00041585873733692303
sVhttp://www.iitr.ac.in/departments/MA/pages/People+Faculty+Yadav_S_P_.html
p313
F0.0004160753742808661
sVhttp://www.iitr.ac.in/departments/CE/pages/People+Faculty+srkarfce.html
p314
F0.00041610897555978475
sVhttp://www.iitr.ac.in/departments/CY/pages/People+Faculty+akjaincy.html
p315
F0.0004159809376057057
sVhttp://www.iitr.ac.in/departments/MA/pages/People+Faculty+Mittal_R_C.html
p316
F0.0004160753742808661
sVhttp://www.iitr.ac.in/departments/CE/pages/People+Faculty+smittfce.html
p317
F0.00041610897555978475
sVhttp://www.iitr.ac.in/departments/CY/pages/People+Faculty+anujsfcy.html
p318
F0.0004159809376057057
sVhttp://faculty.iitmandi.ac.in/~nitu/
p319
F0.00041833007561815954
sVhttp://www.iitr.ac.in/departments/EE/pages/People+Faculty+mohanfee.html
p320
F0.00041618545658572465
sVhttp://www.iitr.ernet.in/departments/ME/pages/People+Faculty+madanfme.html
p321
F0.00041585873733692303
sVhttp://www.iitr.ac.in/departments/CSE/pages/People+Faculty+Durga_Toshniwal.html
p322
F0.0004164379821761965
sVhttp://www.iitr.ac.in/departments/PH/pages/People+Faculty+hnrajfph.html
p323
F0.00041609316867581147
sVhttp://www.iitr.ac.in/departments/ME/pages/People+Faculty+dkd04fme.html
p324
F0.0004158244236155584
sVhttp://www.iitr.ac.in/departments/ME/pages/People+Faculty+surajfme.html
p325
F0.0004158244236155584
sVhttp://faculty.iitmandi.ac.in/~talha/
p326
F0.00042234115036065715
sVhttp://faculty.iitmandi.ac.in/~samar/
p327
F0.00042085002604498037
sVhttp://www.iitr.ac.in/departments/EE/pages/People+Faculty+eugfefee.html
p328
F0.00041618545658572465
sVhttp://faculty.iitmandi.ac.in/~prem/
p329
F0.00041833007561815954
sVhttp://www.iitr.ac.in/departments/ME/pages/People+Faculty+Akshay_Dvivedi.html
p330
F0.0004158244236155584
sVhttp://www.iitr.ac.in/departments/EE/pages/People+Faculty+satyafee.html
p331
F0.00041618545658572465
sVhttp://www.iitr.ac.in/departments/PH/pages/People+Faculty+Puneet_Jain.html
p332
F0.00041609316867581147
sVhttp://www.iitr.ernet.in/departments/ME/pages/People+Faculty+akhilfme.html
p333
F0.00041585873733692303
sVhttp://www.iitr.ac.in/departments/CE/pages/People+Faculty+ashokfce.html
p334
F0.00041610897555978475
sVhttp://www.iitr.ac.in/departments/ECE/pages/People+Faculty+ghoshfec.html
p335
F0.0004160984020501501
sVhttp://www.iitr.ac.in/departments/ME/pages/People+Faculty+akdasfme.html
p336
F0.0004158244236155584
sVhttp://www.iitr.ac.in/departments/CY/pages/People+Faculty+rngcyfcy.html
p337
F0.0004159809376057057
sVhttp://www.iitr.ac.in/departments/MT/pages/People+Faculty+rjayafmt.html
p338
F0.00041619278997460213
sVhttp://www.iitr.ernet.in/departments/ME/pages/People+Faculty+sjainfme.html
p339
F0.00041585873733692303
sVhttp://faculty.iitmandi.ac.in/~lalitmlhtr/
p340
F0.00041833007561815954
sVhttp://www.iitr.ernet.in/departments/ME/pages/People+Faculty+shumefme.html
p341
F0.00041585873733692303
sVhttp://www.iitr.ac.in/departments/ME/pages/People+Faculty+indrafme.html
p342
F0.0004158244236155584
sVhttp://www.iitr.ac.in/departments/CH/pages/People+Faculty+bmohanty.html
p343
F0.0004161689272139339
sVhttp://www.iitr.ac.in/departments/CY/pages/People+Faculty+ghoshfcy.html
p344
F0.0004159809376057057
sVhttp://www.iitr.ac.in/departments/ECE/pages/People+Faculty+vinodfec.html
p345
F0.0004160984020501501
sVhttp://faculty.iitmandi.ac.in/~padman/software/extract_lpGdelayVec_diff.m
p346
F0.0006446555917960627
sVhttp://www.iitr.ac.in/departments/HS/pages/People+Faculty+anindfhs.html
p347
F0.00041655743178483376
sVhttp://www.iitr.ernet.in/departments/ME/pages/People+Faculty+rprakash.html
p348
F0.00041585873733692303
sVhttp://www.iitr.ac.in/departments/CH/pages/People+Faculty+vksinfch.html
p349
F0.0004161689272139339
sVhttp://www.iitr.ac.in/departments/ME/pages/People+Faculty+pjainfme.html
p350
F0.0004158244236155584
sVhttp://www.iitr.ac.in/departments/PH/pages/People+Faculty+dkaurfph.html
p351
F0.00041609316867581147
sVhttp://www.iitr.ac.in/departments/EE/pages/People+Faculty+btyagfee.html
p352
F0.00041618545658572465
sVhttp://faculty.iitmandi.ac.in/~bhakti/
p353
F0.00042085002604498037
sVhttp://www.iitr.ac.in/departments/PPE/pages/People+Faculty+akrayfpt.html
p354
F0.0004207696454640937
sVhttp://www.iitr.ac.in/departments/CH/pages/People+Faculty+prakbfch.html
p355
F0.0004161689272139339
sVhttp://www.iitr.ernet.in/departments/ME/pages/People+Faculty+kumarfme.html
p356
F0.00041585873733692303
sS'http://www.iitmandi.ac.in/institute/faculty.html'
p357
F0.0004621451693703503
sVhttp://faculty.iitmandi.ac.in/~manoj/
p358
F0.0005866700860361517
sVhttp://www.iitr.ac.in/departments/CSE/pages/Home+Departments_and_Centres+Mathematics+People+Faculty+Balasubramanian_R_.html
p359
F0.0004164379821761965
sVhttp://faculty.iitmandi.ac.in/~ravi/
p360
F0.00041833007561815954
sVhttp://faculty.iitmandi.ac.in/~prosenjit/
p361
F0.00041833007561815954
sVhttp://www.iitr.ac.in/departments/MA/pages/People+Faculty+Bhargava_R_R___Ms__.html
p362
F0.0004160753742808661
sVhttp://www.iitr.ernet.in/departments/ME/pages/People+Faculty+dhishfme.html
p363
F0.00041585873733692303
sVhttp://www.iitr.ac.in/departments/MT/pages/People+Faculty+manojfmt.html
p364
F0.00041619278997460213
sVhttp://www.iitr.ac.in/departments/CE/pages/People+Faculty+prmdkfce.html
p365
F0.00041610897555978475
sVhttp://faculty.iitmandi.ac.in/~shripad/
p366
F0.00042234115036065715
sVhttp://www.iitr.ac.in/departments/CE/pages/People+Faculty+pritifce.html
p367
F0.00041610897555978475
sVhttp://www.iitr.ac.in/departments/CH/pages/People+Faculty+vimalfch.html
p368
F0.0004161689272139339
sVhttp://www.iitr.ac.in/departments/EE/pages/People+Faculty+biswafee.html
p369
F0.00041618545658572465
sVhttp://faculty.iitmandi.ac.in/~ramesho/
p370
F0.00042085002604498037
sVhttp://www.iitr.ac.in/departments/MA/pages/People+Faculty+pratibha.html
p371
F0.0004160753742808661
sVhttp://www.iitr.ac.in/departments/CE/pages/People+Faculty+ahujafce.html
p372
F0.00041610897555978475
sS'http://www.iitr.ac.in/departments/CE/pages/index.html'
p373
F0.0006167438539624332
sS'http://www.iitr.ac.in/departments/EE/pages/index.html'
p374
F0.0005530767719403927
sVhttp://faculty.iitmandi.ac.in/~varun/
p375
F0.0004240441292048427
sVhttp://www.iitr.ac.in/departments/CH/pages/People+Faculty+invigfch.html
p376
F0.0004161689272139339
sVhttp://www.iitr.ac.in/departments/BT/pages/People+Faculty+bijanfbs.html
p377
F0.0004160488930862981
sVhttp://www.iitr.ac.in/departments/ME/pages/People+Faculty+akshafme.html
p378
F0.0004158244236155584
sVhttp://www.iitr.ac.in/departments/MT/pages/People+Faculty+ujwalfmt.html
p379
F0.00041619278997460213
sVhttp://www.iitr.ac.in/departments/ECE/pages/People+Faculty+apfecfec.html
p380
F0.0004160984020501501
sVhttp://www.iitr.ac.in/departments/EE/pages/People+Faculty+vinodfee.html
p381
F0.00041618545658572465
sVhttp://www.iitr.ac.in/departments/PH/pages/People+Faculty+Dr__P__Sanyal.html
p382
F0.00041609316867581147
sVhttp://www.iitr.ac.in/departments/EE/pages/People+Faculty+pramgfee.html
p383
F0.00041618545658572465
sVhttp://www.iitr.ac.in/departments/CSE/pages/People+Faculty+vaskafec.html
p384
F0.0004164379821761965
sVhttp://www.iitr.ac.in/departments/PH/pages/People+Faculty+rajsrfph.html
p385
F0.00041609316867581147
sVhttp://www.iitr.ac.in/departments/CY/pages/People+Faculty+Kalyan_Sadhu.html
p386
F0.0004159809376057057
sVhttp://www.iitr.ac.in/departments/MT/pages/People+Faculty+vvdabfmt.html
p387
F0.00041619278997460213
sVhttp://www.iitr.ac.in/departments/MT/pages/People+Faculty+truthfmt.html
p388
F0.00041619278997460213
sVhttp://www.iitr.ac.in/departments/MT/pages/People+Faculty+smulafmt.html
p389
F0.0004201007034954904
sVhttp://www.iitr.ernet.in/departments/ME/pages/People+Faculty+radhefme.html
p390
F0.00041585873733692303
sVhttp://www.iitr.ac.in/departments/PH/pages/People+Faculty+tulimfph.html
p391
F0.00041609316867581147
sVhttp://www.iitr.ac.in/departments/CE/pages/People+Faculty+udayafce.html
p392
F0.00041610897555978475
sVhttp://www.iitr.ac.in/departments/EE/pages/People+Faculty+krisnfee.html
p393
F0.00041618545658572465
sVhttp://www.iitr.ac.in/departments/BT/pages/People+Faculty+rpsbsfbs.html
p394
F0.0004160488930862981
sVhttp://www.iitr.ac.in/departments/CE/pages/People+Faculty+akhilfce.html
p395
F0.00041610897555978475
sVhttp://www.iitr.ac.in/departments/ASE/pages/People+Faculty+ajaysfpt.html
p396
F0.0004213328560108855
sVhttp://www.iitr.ac.in/departments/EE/pages/People+Faculty+asharfee.html
p397
F0.00041618545658572465
sVhttp://www.iitr.ac.in/departments/HS/pages/People+Faculty+pashufhs.html
p398
F0.00041655743178483376
sVhttp://www.iitr.ernet.in/departments/ME/pages/People+Faculty+sainifme.html
p399
F0.00041585873733692303
sVhttp://www.iitr.ernet.in/departments/ME/pages/People+Faculty+anikrfme.html
p400
F0.00041585873733692303
sVhttp://www.iitr.ac.in/departments/EE/pages/People+Faculty+rpdeefee.html
p401
F0.00041618545658572465
sVhttp://www.iitr.ac.in/departments/MT/pages/People+Faculty+dev27fmt.html
p402
F0.00041619278997460213
sVhttp://faculty.iitmandi.ac.in/~padman/pubs.html
p403
F0.0005807111444386106
sVhttp://faculty.iitmandi.ac.in/~addileep
p404
F0.00042085002604498037
sVhttp://www.iitr.ac.in/departments/PH/pages/People+Faculty+klalyfph.html
p405
F0.00041609316867581147
sVhttp://faculty.iitmandi.ac.in/~pkumar/
p406
F0.00041833007561815954
sVhttp://www.iitr.ac.in/departments/EE/pages/People+Faculty+psumifee.html
p407
F0.00041618545658572465
sVhttp://www.iitr.ac.in/departments/CE/pages/People+Faculty+pkaerfce.html
p408
F0.00041610897555978475
sVhttp://www.iitr.ac.in/departments/CY/pages/People+Faculty_List.html
p409
F0.0005324460288003603
sVhttp://www.iitr.ac.in/departments/ECE/pages/People+Faculty+rajibfec.html
p410
F0.0004160984020501501
sVhttp://www.iitr.ac.in/departments/CE/pages/People+Faculty+sonarfce.html
p411
F0.00041610897555978475
sVhttp://www.iitr.ac.in/departments/CY/pages/People+Faculty+ramcnfcy.html
p412
F0.0004159809376057057
sVhttp://www.iitmandi.ac.in/institute/faculty_bs.html
p413
F0.0004320232658217255
sVhttp://faculty.iitmandi.ac.in/~vsc/
p414
F0.00042234115036065715
sVhttp://www.iitr.ac.in/departments/EE/pages/People+Faculty+nppeefee.html
p415
F0.00041618545658572465
sVhttp://www.iitr.ac.in/departments/ME/pages/People+Faculty+meaksfme.html
p416
F0.0004158244236155584
sVhttp://www.iitr.ac.in/departments/CE/pages/People+Faculty+sawntfce.html
p417
F0.00041610897555978475
sVhttp://www.iitr.ac.in/departments/CY/pages/People+Faculty+rkpedfcy.html
p418
F0.0004159809376057057
sVhttp://www.iitr.ernet.in/departments/ME/pages/People+Faculty+ashokfme.html
p419
F0.00041585873733692303
sVhttp://www.iitr.ac.in/departments/ME/pages/People+Faculty+akhilfme.html
p420
F0.0004158244236155584
sVhttp://www.iitr.ernet.in/departments/ME/pages/People+Faculty+mmj81fme.html
p421
F0.00041585873733692303
sVhttp://faculty.iitmandi.ac.in/~sarita/
p422
F0.00041833007561815954
sVhttp://faculty.iitmandi.ac.in/~tulika/
p423
F0.00041833007561815954
sVhttp://www.iitr.ernet.in/departments/ME/pages/People+Faculty+mehtafme.html
p424
F0.00041585873733692303
sVhttp://faculty.iitmandi.ac.in/~varun
p425
F0.00042085002604498037
sVhttp://www.iitr.ernet.in/departments/ME/pages/People+Faculty+manasfme.html
p426
F0.00041585873733692303
sVhttp://www.iitr.ac.in/departments/CY/pages/People+Faculty+pdebhfcy.html
p427
F0.0004159809376057057
sVhttp://www.iitr.ac.in/departments/ME/pages/People+Faculty+dhishfme.html
p428
F0.0004158244236155584
sVhttp://www.iitr.ac.in/departments/BT/pages/People+Faculty+mayasfbt.html
p429
F0.0004160488930862981
sVhttp://www.iitr.ac.in/departments/ECE/pages/People+Faculty+kartkfec.html
p430
F0.0004160984020501501
sVhttp://www.iitr.ernet.in/departments/ME/pages/People+Faculty+indrafme.html
p431
F0.00041585873733692303
sVhttp://www.iitr.ac.in/departments/EE/pages/People+Faculty+anandfee.html
p432
F0.00041618545658572465
sVhttp://www.iitr.ac.in/departments/CE/pages/People+Faculty+singhfce.html
p433
F0.00041610897555978475
sVhttp://www.iitr.ac.in/departments/CY/pages/People+Faculty+nasemfcy.html
p434
F0.0004159809376057057
sVhttp://www.iitr.ac.in/departments/ECE/pages/People+Faculty+anandfec.html
p435
F0.0004160984020501501
sVhttp://www.iitr.ac.in/departments/CE/pages/People+Faculty+vipulfeq.html
p436
F0.00041610897555978475
sVhttp://faculty.iitmandi.ac.in/~amitprasad/
p437
F0.00041833007561815954
sVhttp://www.iitr.ac.in/departments/MT/pages/People+Faculty_List.html
p438
F0.0005159235537877919
sVhttp://www.iitr.ac.in/departments/ME/pages/People+Faculty+rsmulfme.html
p439
F0.0004158244236155584
sVhttp://www.iitr.ernet.in/departments/ME/pages/People+Faculty+Avinash_Parashar.html
p440
F0.00041585873733692303
sVhttp://www.iitr.ac.in/departments/BT/pages/People+Faculty+rapdyfbs.html
p441
F0.0004160488930862981
sVhttp://www.iitr.ac.in/departments/BT/pages/People+Faculty+__Prabhat_Kumar_Mandal.html
p442
F0.0004160488930862981
sVhttp://www.iitr.ac.in/departments/EE/pages/People+Faculty+gksngfee.html
p443
F0.00041618545658572465
sVhttp://www.iitr.ac.in/departments/MT/pages/People+Faculty+bhardfmt.html
p444
F0.00041619278997460213
sS'http://www.iitr.ac.in/departments/PH/pages/index.html'
p445
F0.0005443475683219719
sVhttp://www.iitr.ac.in/departments/CE/pages/People+Faculty+satisfce.html
p446
F0.00041610897555978475
sVhttp://www.iitr.ac.in/departments/ECE/pages/People+Faculty+dkmecfec.html
p447
F0.0004160984020501501
sVhttp://www.iitr.ac.in/departments/CH/pages/People+Faculty+cvm16fch.html
p448
F0.0004161689272139339
sVhttp://www.iitr.ac.in/departments/MT/pages/People+Faculty+surayfmt.html
p449
F0.00041619278997460213
sVhttp://www.iitr.ac.in/departments/CE/pages/People+Faculty+scangfce.html
p450
F0.00041610897555978475
sVhttp://www.iitr.ac.in/departments/CY/pages/People+Faculty+anilkfcy.html
p451
F0.0004159809376057057
sVhttp://www.iitr.ac.in/departments/CH/pages/People+Faculty+sashifch.html
p452
F0.0004161689272139339
sVhttp://faculty.iitmandi.ac.in/~sawhneyrc/
p453
F0.00041833007561815954
sVhttp://www.iitr.ac.in/departments/CE/pages/People+Faculty+sumanfce.html
p454
F0.00041610897555978475
sVhttp://www.iitr.ac.in/departments/CSE/pages/People+Faculty_List.html
p455
F0.00047277109808594765
sVhttp://www.iitr.ac.in/departments/PPE/pages/People+Faculty+ashukfpt.html
p456
F0.0004207696454640937
sVhttp://www.iitr.ernet.in/departments/ME/pages/People+Faculty+krimufme.html
p457
F0.00041585873733692303
sVhttp://www.iitr.ac.in/departments/BT/pages/People+Faculty+aksbsfbs.html
p458
F0.0004160488930862981
sVhttp://www.iitr.ac.in/departments/ME/pages/People+Faculty.html
p459
F0.0006086422911081617
sS'http://www.iitr.ac.in/departments/ECE/pages/Home.html'
p460
F0.000507840269023689
sVhttp://www.iitr.ac.in/departments/CSE/pages/People+Faculty+rajdpfec.html
p461
F0.0004164379821761965
sVhttp://www.iitr.ac.in/departments/PH/pages/People+Faculty+anilgfph.html
p462
F0.00041609316867581147
sVhttp://www.iitr.ac.in/departments/MA/pages/People+Faculty+Gangopadhyay_Aditi.html
p463
F0.0004160753742808661
sVhttp://www.iitr.ac.in/departments/CE/pages/People+Faculty+Jagdish_Prasad_Sahoo.html
p464
F0.00041610897555978475
sVhttp://www.iitmandi.ac.in/institute/faculty_e.html
p465
F0.0004735757761518371
sVhttp://www.iitr.ernet.in/departments/ME/pages/People+Faculty+akshafme.html
p466
F0.00041585873733692303
sVhttp://www.iitr.ac.in/departments/ME/pages/People+Faculty+saranfme.html
p467
F0.0004158244236155584
sVhttp://www.iitr.ac.in/departments/MA/pages/People+Faculty+Srivastava_Tanuja.html
p468
F0.0004160753742808661
sVhttp://www.iitr.ac.in/departments/ME/pages/People+Faculty+tariqfme.html
p469
F0.0004158244236155584
sVhttp://faculty.iitmandi.ac.in/~chayan/
p470
F0.00041833007561815954
sVhttp://www.iitr.ac.in/departments/ME/pages/People+Faculty+goelvfme.html
p471
F0.0004158244236155584
sVhttp://www.iitr.ac.in/departments/MA/pages/People+Faculty+Sukavanam_N_.html
p472
F0.0004160753742808661
sVhttp://www.iitr.ac.in/departments/CE/pages/People+Faculty+gdranfce.html
p473
F0.00041610897555978475
sVhttp://www.iitr.ac.in/departments/ME/pages/People+Faculty+pushpfme.html
p474
F0.0004158244236155584
sVhttp://www.iitr.ac.in/departments/EE/pages/People+Faculty+indrafee.html
p475
F0.00041618545658572465
sVhttp://www.iitr.ac.in/departments/PH/pages/People+Faculty+aydeofph.html
p476
F0.00041609316867581147
sVhttp://www.iitr.ac.in/departments/ME/pages/People+Faculty+madanfme.html
p477
F0.0004158244236155584
sVhttp://www.iitr.ernet.in/departments/ME/pages/People+Faculty+bennyfme.html
p478
F0.00041585873733692303
sVhttp://www.iitr.ac.in/departments/MT/pages/People+Faculty+dlahifmt.html
p479
F0.00041619278997460213
sVhttp://faculty.iitmandi.ac.in/~bsr/
p480
F0.00042085002604498037
sVhttp://www.iitr.ac.in/departments/MT/pages/People+Faculty+chaudfmt.html
p481
F0.00041619278997460213
sVhttp://www.iitr.ac.in/departments/CE/pages/People+Faculty+achakfce.html
p482
F0.00041610897555978475
sVhttp://www.iitr.ac.in/departments/MA/pages/People+Faculty+Agrawal_P_N_.html
p483
F0.0004160753742808661
sVhttp://www.iitr.ac.in/departments/CE/pages/People+Faculty+cojhafce.html
p484
F0.00041610897555978475
sVhttp://www.iitr.ac.in/departments/PH/pages/People+Faculty+gssaafph.html
p485
F0.00041609316867581147
s.